#include <math.h>
#include <stdio.h>
#include <stdlib.h>
#include <string.h>

int main()
{
 int n,i,a[300],hash[300],j=0,k,flag;
 scanf("%d",&n);
 for(i=0;i<n;i++)
 scanf("%d",&a[i]);
 printf("%d",a[0]);
 hash[0]=a[0];
 for(i=1;i<n;i++)
 {
  flag=1;
  for(k=0;k<=j;k++)
   if(a[i]==hash[k])
    flag=0;
  if(flag)
   {
    printf(",%d",a[i]);
    hash[++j]=a[i];
   }
 }
 printf("\n");

}