; ModuleID = 'source-C-CXX/52/507.c'
source_filename = "source-C-CXX/52/507.c"
target datalayout = "e-m:e-p270:32:32-p271:32:32-p272:64:64-i64:64-f80:128-n8:16:32:64-S128"
target triple = "x86_64-pc-linux-gnu"

@.str = private unnamed_addr constant [3 x i8] c"%d\00", align 1
@.str.1 = private unnamed_addr constant [4 x i8] c",%d\00", align 1

; Function Attrs: nofree nounwind sspstrong uwtable
define dso_local i32 @main() local_unnamed_addr #0 {
  %1 = alloca i32, align 4
  %2 = alloca [300 x i32], align 16
  %3 = alloca [300 x i32], align 16
  %4 = bitcast i32* %1 to i8*
  call void @llvm.lifetime.start.p0i8(i64 4, i8* nonnull %4) #4
  %5 = bitcast [300 x i32]* %2 to i8*
  call void @llvm.lifetime.start.p0i8(i64 1200, i8* nonnull %5) #4
  %6 = bitcast [300 x i32]* %3 to i8*
  call void @llvm.lifetime.start.p0i8(i64 1200, i8* nonnull %6) #4
  %7 = call i32 (i8*, ...) @__isoc99_scanf(i8* getelementptr inbounds ([3 x i8], [3 x i8]* @.str, i64 0, i64 0), i32* nonnull %1)
  %8 = load i32, i32* %1, align 4, !tbaa !5
  %9 = icmp sgt i32 %8, 0
  br i1 %9, label %10, label %21

10:                                               ; preds = %0, %10
  %11 = phi i64 [ %14, %10 ], [ 0, %0 ]
  %12 = getelementptr inbounds [300 x i32], [300 x i32]* %2, i64 0, i64 %11
  %13 = call i32 (i8*, ...) @__isoc99_scanf(i8* getelementptr inbounds ([3 x i8], [3 x i8]* @.str, i64 0, i64 0), i32* nonnull %12)
  %14 = add nuw nsw i64 %11, 1
  %15 = load i32, i32* %1, align 4, !tbaa !5
  %16 = sext i32 %15 to i64
  %17 = icmp slt i64 %14, %16
  br i1 %17, label %10, label %18, !llvm.loop !9

18:                                               ; preds = %10
  %19 = getelementptr inbounds [300 x i32], [300 x i32]* %2, i64 0, i64 0
  %20 = load i32, i32* %19, align 16, !tbaa !5
  br label %21

21:                                               ; preds = %18, %0
  %22 = phi i32 [ %20, %18 ], [ undef, %0 ]
  %23 = getelementptr inbounds [300 x i32], [300 x i32]* %2, i64 0, i64 0
  %24 = call i32 (i8*, ...) @printf(i8* nonnull dereferenceable(1) getelementptr inbounds ([3 x i8], [3 x i8]* @.str, i64 0, i64 0), i32 %22)
  %25 = load i32, i32* %23, align 16, !tbaa !5
  %26 = getelementptr inbounds [300 x i32], [300 x i32]* %3, i64 0, i64 0
  store i32 %25, i32* %26, align 16, !tbaa !5
  %27 = load i32, i32* %1, align 4, !tbaa !5
  %28 = icmp sgt i32 %27, 1
  br i1 %28, label %29, label %104

29:                                               ; preds = %21, %98
  %30 = phi i32 [ %99, %98 ], [ %27, %21 ]
  %31 = phi i64 [ %101, %98 ], [ 1, %21 ]
  %32 = phi i32 [ %100, %98 ], [ 0, %21 ]
  %33 = icmp slt i32 %32, 0
  br i1 %33, label %89, label %34

34:                                               ; preds = %29
  %35 = getelementptr inbounds [300 x i32], [300 x i32]* %2, i64 0, i64 %31
  %36 = load i32, i32* %35, align 4, !tbaa !5
  %37 = add nuw i32 %32, 1
  %38 = zext i32 %37 to i64
  %39 = add nsw i64 %38, -1
  %40 = and i64 %38, 3
  %41 = icmp ult i64 %39, 3
  br i1 %41, label %70, label %42

42:                                               ; preds = %34
  %43 = and i64 %38, 4294967292
  br label %44

44:                                               ; preds = %44, %42
  %45 = phi i64 [ 0, %42 ], [ %67, %44 ]
  %46 = phi i32 [ 1, %42 ], [ %66, %44 ]
  %47 = phi i64 [ %43, %42 ], [ %68, %44 ]
  %48 = getelementptr inbounds [300 x i32], [300 x i32]* %3, i64 0, i64 %45
  %49 = load i32, i32* %48, align 16, !tbaa !5
  %50 = icmp eq i32 %36, %49
  %51 = or i64 %45, 1
  %52 = getelementptr inbounds [300 x i32], [300 x i32]* %3, i64 0, i64 %51
  %53 = load i32, i32* %52, align 4, !tbaa !5
  %54 = icmp eq i32 %36, %53
  %55 = or i64 %45, 2
  %56 = getelementptr inbounds [300 x i32], [300 x i32]* %3, i64 0, i64 %55
  %57 = load i32, i32* %56, align 8, !tbaa !5
  %58 = icmp eq i32 %36, %57
  %59 = or i64 %45, 3
  %60 = getelementptr inbounds [300 x i32], [300 x i32]* %3, i64 0, i64 %59
  %61 = load i32, i32* %60, align 4, !tbaa !5
  %62 = icmp eq i32 %36, %61
  %63 = select i1 %62, i1 true, i1 %58
  %64 = select i1 %63, i1 true, i1 %54
  %65 = select i1 %64, i1 true, i1 %50
  %66 = select i1 %65, i32 0, i32 %46
  %67 = add nuw nsw i64 %45, 4
  %68 = add i64 %47, -4
  %69 = icmp eq i64 %68, 0
  br i1 %69, label %70, label %44, !llvm.loop !11

70:                                               ; preds = %44, %34
  %71 = phi i32 [ undef, %34 ], [ %66, %44 ]
  %72 = phi i64 [ 0, %34 ], [ %67, %44 ]
  %73 = phi i32 [ 1, %34 ], [ %66, %44 ]
  %74 = icmp eq i64 %40, 0
  br i1 %74, label %86, label %75

75:                                               ; preds = %70, %75
  %76 = phi i64 [ %83, %75 ], [ %72, %70 ]
  %77 = phi i32 [ %82, %75 ], [ %73, %70 ]
  %78 = phi i64 [ %84, %75 ], [ %40, %70 ]
  %79 = getelementptr inbounds [300 x i32], [300 x i32]* %3, i64 0, i64 %76
  %80 = load i32, i32* %79, align 4, !tbaa !5
  %81 = icmp eq i32 %36, %80
  %82 = select i1 %81, i32 0, i32 %77
  %83 = add nuw nsw i64 %76, 1
  %84 = add i64 %78, -1
  %85 = icmp eq i64 %84, 0
  br i1 %85, label %86, label %75, !llvm.loop !12

86:                                               ; preds = %75, %70
  %87 = phi i32 [ %71, %70 ], [ %82, %75 ]
  %88 = icmp eq i32 %87, 0
  br i1 %88, label %98, label %89

89:                                               ; preds = %29, %86
  %90 = getelementptr inbounds [300 x i32], [300 x i32]* %2, i64 0, i64 %31
  %91 = load i32, i32* %90, align 4, !tbaa !5
  %92 = call i32 (i8*, ...) @printf(i8* nonnull dereferenceable(1) getelementptr inbounds ([4 x i8], [4 x i8]* @.str.1, i64 0, i64 0), i32 %91)
  %93 = load i32, i32* %90, align 4, !tbaa !5
  %94 = add nsw i32 %32, 1
  %95 = sext i32 %94 to i64
  %96 = getelementptr inbounds [300 x i32], [300 x i32]* %3, i64 0, i64 %95
  store i32 %93, i32* %96, align 4, !tbaa !5
  %97 = load i32, i32* %1, align 4, !tbaa !5
  br label %98

98:                                               ; preds = %86, %89
  %99 = phi i32 [ %97, %89 ], [ %30, %86 ]
  %100 = phi i32 [ %94, %89 ], [ %32, %86 ]
  %101 = add nuw nsw i64 %31, 1
  %102 = sext i32 %99 to i64
  %103 = icmp slt i64 %101, %102
  br i1 %103, label %29, label %104, !llvm.loop !14

104:                                              ; preds = %98, %21
  %105 = call i32 @putchar(i32 10)
  call void @llvm.lifetime.end.p0i8(i64 1200, i8* nonnull %6) #4
  call void @llvm.lifetime.end.p0i8(i64 1200, i8* nonnull %5) #4
  call void @llvm.lifetime.end.p0i8(i64 4, i8* nonnull %4) #4
  ret i32 0
}

; Function Attrs: argmemonly mustprogress nofree nosync nounwind willreturn
declare void @llvm.lifetime.start.p0i8(i64 immarg, i8* nocapture) #1

; Function Attrs: nofree nounwind
declare noundef i32 @__isoc99_scanf(i8* nocapture noundef readonly, ...) local_unnamed_addr #2

; Function Attrs: nofree nounwind
declare noundef i32 @printf(i8* nocapture noundef readonly, ...) local_unnamed_addr #2

; Function Attrs: argmemonly mustprogress nofree nosync nounwind willreturn
declare void @llvm.lifetime.end.p0i8(i64 immarg, i8* nocapture) #1

; Function Attrs: nofree nounwind
declare noundef i32 @putchar(i32 noundef) local_unnamed_addr #3


!llvm.module.flags = !{!0, !1, !2, !3}
!llvm.ident = !{!4}

!0 = !{i32 1, !"wchar_size", i32 4}
!1 = !{i32 7, !"PIC Level", i32 2}
!2 = !{i32 7, !"PIE Level", i32 2}
!3 = !{i32 7, !"uwtable", i32 1}
!4 = !{!"clang version 13.0.0"}
!5 = !{!6, !6, i64 0}
!6 = !{!"int", !7, i64 0}
!7 = !{!"omnipotent char", !8, i64 0}
!8 = !{!"Simple C/C++ TBAA"}
!9 = distinct !{!9, !10}
!10 = !{!"llvm.loop.mustprogress"}
!11 = distinct !{!11, !10}
!12 = distinct !{!12, !13}
!13 = !{!"llvm.loop.unroll.disable"}
!14 = distinct !{!14, !10}
